target datalayout = "e-m:e-p270:32:32-p271:32:32-p272:64:64-i64:64-i128:128-f80:128-n8:16:32:64-S128"
target triple = "x86_64-pc-linux-gnu"

%struct.ident_t = type { i32, i32, i32, i32, ptr }
%"class.std::__cxx11::basic_string" = type { %"struct.std::__cxx11::basic_string<char>::_Alloc_hider", i64, %union.anon }
%"struct.std::__cxx11::basic_string<char>::_Alloc_hider" = type { ptr }
%union.anon = type { i64, [8 x i8] }
%"struct.faiss::IndexNSG" = type <{ %"struct.faiss::Index.base", [4 x i8], %"struct.faiss::NSG", i8, [7 x i8], ptr, i8, [3 x i8], i32, i8, [3 x i8], i32, i32, i32, i32, [4 x i8] }>
%"struct.faiss::Index.base" = type <{ ptr, i32, [4 x i8], i64, i8, i8, [2 x i8], i32, float }>
%"struct.faiss::NSG" = type { i32, i32, i32, i32, i32, i32, %"class.std::shared_ptr", i8, %"struct.faiss::RandomGenerator" }
%"class.std::shared_ptr" = type { %"class.std::__shared_ptr" }
%"class.std::__shared_ptr" = type { ptr, %"class.std::__shared_count" }
%"class.std::__shared_count" = type { ptr }
%"struct.faiss::RandomGenerator" = type { %"class.std::mersenne_twister_engine" }
%"class.std::mersenne_twister_engine" = type { [624 x i64], i64 }
%"struct.faiss::Index" = type <{ ptr, i32, [4 x i8], i64, i8, i8, [2 x i8], i32, float, [4 x i8] }>

@.str = private unnamed_addr constant [87 x i8] c"Error: '%s' failed: Please use IndexNSGFlat (or variants) instead of IndexNSG directly\00", align 1
@.str.1 = private unnamed_addr constant [8 x i8] c"storage\00", align 1
@.str.2 = private unnamed_addr constant [108 x i8] c"generated/home/dtcxzyw/WorkSpace/Projects/compilers/llvm-opt-benchmark/bench/faiss/faiss/faiss/IndexNSG.cpp\00", align 1
@_ZTIN5faiss14FaissExceptionE = external constant ptr
@.str.3 = private unnamed_addr constant [63 x i8] c"Error: '%s' failed: search params not supported for this index\00", align 1
@.str.4 = private unnamed_addr constant [8 x i8] c"!params\00", align 1
@__PRETTY_FUNCTION__._ZNK5faiss8IndexNSG6searchElPKflPfPlPKNS_16SearchParametersE = private unnamed_addr constant [116 x i8] c"virtual void faiss::IndexNSG::search(idx_t, const float *, idx_t, float *, idx_t *, const SearchParameters *) const\00", align 1
@3 = private unnamed_addr constant %struct.ident_t { i32 0, i32 2, i32 0, i32 22, ptr @0 }, align 8

; Function Attrs: mustprogress nounwind uwtable
define linkonce_odr noundef zeroext i1 @_ZN5faiss20is_similarity_metricENS_10MetricTypeE(i32 noundef %0) #0 comdat {
  %2 = alloca i32, align 4
  store i32 %0, ptr %2, align 4
  %3 = load i32, ptr %2, align 4
  %4 = icmp eq i32 %3, 0
  br i1 %4, label %8, label %5

5:                                                ; preds = %1
  %6 = load i32, ptr %2, align 4
  %7 = icmp eq i32 %6, 23
  br label %8

8:                                                ; preds = %5, %1
  %9 = phi i1 [ true, %1 ], [ %7, %5 ]
  ret i1 %9
}

; Function Attrs: mustprogress nounwind uwtable
define linkonce_odr noundef nonnull align 8 dereferenceable(8) ptr @_ZSt3minIlERKT_S2_S2_(ptr noundef nonnull align 8 dereferenceable(8) %0, ptr noundef nonnull align 8 dereferenceable(8) %1) #0 comdat {
  %3 = alloca ptr, align 8
  %4 = alloca ptr, align 8
  %5 = alloca ptr, align 8
  store ptr %0, ptr %4, align 8
  store ptr %1, ptr %5, align 8
  %6 = load ptr, ptr %5, align 8
  %7 = load i64, ptr %6, align 8
  %8 = load ptr, ptr %4, align 8
  %9 = load i64, ptr %8, align 8
  %10 = icmp slt i64 %7, %9
  br i1 %10, label %11, label %13

11:                                               ; preds = %2
  %12 = load ptr, ptr %5, align 8
  store ptr %12, ptr %3, align 8
  br label %15

13:                                               ; preds = %2
  %14 = load ptr, ptr %4, align 8
  store ptr %14, ptr %3, align 8
  br label %15

15:                                               ; preds = %13, %11
  %16 = load ptr, ptr %3, align 8
  ret ptr %16
}

; Function Attrs: mustprogress nounwind uwtable
define linkonce_odr noundef nonnull align 4 dereferenceable(4) ptr @_ZSt3maxIiERKT_S2_S2_(ptr noundef nonnull align 4 dereferenceable(4) %0, ptr noundef nonnull align 4 dereferenceable(4) %1) #0 comdat {
  %3 = alloca ptr, align 8
  %4 = alloca ptr, align 8
  %5 = alloca ptr, align 8
  store ptr %0, ptr %4, align 8
  store ptr %1, ptr %5, align 8
  %6 = load ptr, ptr %4, align 8
  %7 = load i32, ptr %6, align 4
  %8 = load ptr, ptr %5, align 8
  %9 = load i32, ptr %8, align 4
  %10 = icmp slt i32 %7, %9
  br i1 %10, label %11, label %13

11:                                               ; preds = %2
  %12 = load ptr, ptr %5, align 8
  store ptr %12, ptr %3, align 8
  br label %15

13:                                               ; preds = %2
  %14 = load ptr, ptr %4, align 8
  store ptr %14, ptr %3, align 8
  br label %15

15:                                               ; preds = %13, %11
  %16 = load ptr, ptr %3, align 8
  ret ptr %16
}

; Function Attrs: mustprogress uwtable
define void @_ZNK5faiss8IndexNSG6searchElPKflPfPlPKNS_16SearchParametersE(ptr noundef nonnull align 8 dereferenceable(5132) %0, i64 noundef %1, ptr noundef %2, i64 noundef %3, ptr noundef %4, ptr noundef %5, ptr noundef %6) unnamed_addr #1 align 2 personality ptr @__gxx_personality_v0 {
  %8 = alloca ptr, align 8
  %9 = alloca i64, align 8
  %10 = alloca ptr, align 8
  %11 = alloca i64, align 8
  %12 = alloca ptr, align 8
  %13 = alloca ptr, align 8
  %14 = alloca ptr, align 8
  %15 = alloca %"class.std::__cxx11::basic_string", align 8
  %16 = alloca i32, align 4
  %17 = alloca ptr, align 8
  %18 = alloca i32, align 4
  %19 = alloca %"class.std::__cxx11::basic_string", align 8
  %20 = alloca i32, align 4
  %21 = alloca i32, align 4
  %22 = alloca i32, align 4
  %23 = alloca i64, align 8
  %24 = alloca i64, align 8
  %25 = alloca i64, align 8
  %26 = alloca i64, align 8
  %27 = alloca i64, align 8
  store ptr %0, ptr %8, align 8
  store i64 %1, ptr %9, align 8
  store ptr %2, ptr %10, align 8
  store i64 %3, ptr %11, align 8
  store ptr %4, ptr %12, align 8
  store ptr %5, ptr %13, align 8
  store ptr %6, ptr %14, align 8
  %28 = load ptr, ptr %8, align 8
  br label %29

29:                                               ; preds = %7
  %30 = load ptr, ptr %14, align 8
  %31 = icmp ne ptr %30, null
  br i1 %31, label %32, label %55

32:                                               ; preds = %29
  br label %33

33:                                               ; preds = %32
  call void @_ZNSt7__cxx1112basic_stringIcSt11char_traitsIcESaIcEEC1Ev(ptr noundef nonnull align 8 dereferenceable(32) %15) #7
  %34 = call i32 (ptr, i64, ptr, ...) @snprintf(ptr noundef null, i64 noundef 0, ptr noundef @.str.3, ptr noundef @.str.4) #7
  store i32 %34, ptr %16, align 4
  %35 = load i32, ptr %16, align 4
  %36 = add nsw i32 %35, 1
  %37 = sext i32 %36 to i64
  invoke void @_ZNSt7__cxx1112basic_stringIcSt11char_traitsIcESaIcEE6resizeEm(ptr noundef nonnull align 8 dereferenceable(32) %15, i64 noundef %37)
          to label %38 unwind label %45

38:                                               ; preds = %33
  %39 = invoke noundef nonnull align 1 dereferenceable(1) ptr @_ZNSt7__cxx1112basic_stringIcSt11char_traitsIcESaIcEEixEm(ptr noundef nonnull align 8 dereferenceable(32) %15, i64 noundef 0)
          to label %40 unwind label %45

40:                                               ; preds = %38
  %41 = call noundef i64 @_ZNKSt7__cxx1112basic_stringIcSt11char_traitsIcESaIcEE4sizeEv(ptr noundef nonnull align 8 dereferenceable(32) %15) #7
  %42 = call i32 (ptr, i64, ptr, ...) @snprintf(ptr noundef %39, i64 noundef %41, ptr noundef @.str.3, ptr noundef @.str.4) #7
  %43 = call ptr @__cxa_allocate_exception(i64 40) #7
  invoke void @_ZN5faiss14FaissExceptionC1ERKNSt7__cxx1112basic_stringIcSt11char_traitsIcESaIcEEEPKcSA_i(ptr noundef nonnull align 8 dereferenceable(40) %43, ptr noundef nonnull align 8 dereferenceable(32) %15, ptr noundef @__PRETTY_FUNCTION__._ZNK5faiss8IndexNSG6searchElPKflPfPlPKNS_16SearchParametersE, ptr noundef @.str.2, i32 noundef 67)
          to label %44 unwind label %49

44:                                               ; preds = %40
  invoke void @__cxa_throw(ptr %43, ptr @_ZTIN5faiss14FaissExceptionE, ptr @_ZN5faiss14FaissExceptionD2Ev) #16
          to label %142 unwind label %45

45:                                               ; preds = %44, %38, %33
  %46 = landingpad { ptr, i32 }
          cleanup
  %47 = extractvalue { ptr, i32 } %46, 0
  store ptr %47, ptr %17, align 8
  %48 = extractvalue { ptr, i32 } %46, 1
  store i32 %48, ptr %18, align 4
  br label %53

49:                                               ; preds = %40
  %50 = landingpad { ptr, i32 }
          cleanup
  %51 = extractvalue { ptr, i32 } %50, 0
  store ptr %51, ptr %17, align 8
  %52 = extractvalue { ptr, i32 } %50, 1
  store i32 %52, ptr %18, align 4
  call void @__cxa_free_exception(ptr %43) #7
  br label %53

53:                                               ; preds = %49, %45
  call void @_ZNSt7__cxx1112basic_stringIcSt11char_traitsIcESaIcEED1Ev(ptr noundef nonnull align 8 dereferenceable(32) %15) #7
  br label %137

54:                                               ; No predecessors!
  br label %55

55:                                               ; preds = %54, %29
  br label %56

56:                                               ; preds = %55
  br label %57

57:                                               ; preds = %56
  %58 = getelementptr inbounds %"struct.faiss::IndexNSG", ptr %28, i32 0, i32 5
  %59 = load ptr, ptr %58, align 8
  %60 = icmp ne ptr %59, null
  br i1 %60, label %84, label %61

61:                                               ; preds = %57
  br label %62

62:                                               ; preds = %61
  call void @_ZNSt7__cxx1112basic_stringIcSt11char_traitsIcESaIcEEC1Ev(ptr noundef nonnull align 8 dereferenceable(32) %19) #7
  %63 = call i32 (ptr, i64, ptr, ...) @snprintf(ptr noundef null, i64 noundef 0, ptr noundef @.str, ptr noundef @.str.1) #7
  store i32 %63, ptr %20, align 4
  %64 = load i32, ptr %20, align 4
  %65 = add nsw i32 %64, 1
  %66 = sext i32 %65 to i64
  invoke void @_ZNSt7__cxx1112basic_stringIcSt11char_traitsIcESaIcEE6resizeEm(ptr noundef nonnull align 8 dereferenceable(32) %19, i64 noundef %66)
          to label %67 unwind label %74

67:                                               ; preds = %62
  %68 = invoke noundef nonnull align 1 dereferenceable(1) ptr @_ZNSt7__cxx1112basic_stringIcSt11char_traitsIcESaIcEEixEm(ptr noundef nonnull align 8 dereferenceable(32) %19, i64 noundef 0)
          to label %69 unwind label %74

69:                                               ; preds = %67
  %70 = call noundef i64 @_ZNKSt7__cxx1112basic_stringIcSt11char_traitsIcESaIcEE4sizeEv(ptr noundef nonnull align 8 dereferenceable(32) %19) #7
  %71 = call i32 (ptr, i64, ptr, ...) @snprintf(ptr noundef %68, i64 noundef %70, ptr noundef @.str, ptr noundef @.str.1) #7
  %72 = call ptr @__cxa_allocate_exception(i64 40) #7
  invoke void @_ZN5faiss14FaissExceptionC1ERKNSt7__cxx1112basic_stringIcSt11char_traitsIcESaIcEEEPKcSA_i(ptr noundef nonnull align 8 dereferenceable(40) %72, ptr noundef nonnull align 8 dereferenceable(32) %19, ptr noundef @__PRETTY_FUNCTION__._ZNK5faiss8IndexNSG6searchElPKflPfPlPKNS_16SearchParametersE, ptr noundef @.str.2, i32 noundef 70)
          to label %73 unwind label %78

73:                                               ; preds = %69
  invoke void @__cxa_throw(ptr %72, ptr @_ZTIN5faiss14FaissExceptionE, ptr @_ZN5faiss14FaissExceptionD2Ev) #16
          to label %142 unwind label %74

74:                                               ; preds = %73, %67, %62
  %75 = landingpad { ptr, i32 }
          cleanup
  %76 = extractvalue { ptr, i32 } %75, 0
  store ptr %76, ptr %17, align 8
  %77 = extractvalue { ptr, i32 } %75, 1
  store i32 %77, ptr %18, align 4
  br label %82

78:                                               ; preds = %69
  %79 = landingpad { ptr, i32 }
          cleanup
  %80 = extractvalue { ptr, i32 } %79, 0
  store ptr %80, ptr %17, align 8
  %81 = extractvalue { ptr, i32 } %79, 1
  store i32 %81, ptr %18, align 4
  call void @__cxa_free_exception(ptr %72) #7
  br label %82

82:                                               ; preds = %78, %74
  call void @_ZNSt7__cxx1112basic_stringIcSt11char_traitsIcESaIcEED1Ev(ptr noundef nonnull align 8 dereferenceable(32) %19) #7
  br label %137

83:                                               ; No predecessors!
  br label %84

84:                                               ; preds = %83, %57
  br label %85

85:                                               ; preds = %84
  %86 = getelementptr inbounds %"struct.faiss::IndexNSG", ptr %28, i32 0, i32 2
  %87 = getelementptr inbounds %"struct.faiss::NSG", ptr %86, i32 0, i32 4
  %88 = load i64, ptr %11, align 8
  %89 = trunc i64 %88 to i32
  store i32 %89, ptr %22, align 4
  %90 = call noundef nonnull align 4 dereferenceable(4) ptr @_ZSt3maxIiERKT_S2_S2_(ptr noundef nonnull align 4 dereferenceable(4) %87, ptr noundef nonnull align 4 dereferenceable(4) %22)
  %91 = load i32, ptr %90, align 4
  store i32 %91, ptr %21, align 4
  %92 = getelementptr inbounds %"struct.faiss::Index", ptr %28, i32 0, i32 1
  %93 = load i32, ptr %92, align 8
  %94 = load i32, ptr %21, align 4
  %95 = mul nsw i32 %93, %94
  %96 = sext i32 %95 to i64
  %97 = call noundef i64 @_ZN5faiss17InterruptCallback15get_period_hintEm(i64 noundef %96)
  store i64 %97, ptr %23, align 8
  store i64 0, ptr %24, align 8
  br label %98

98:                                               ; preds = %108, %85
  %99 = load i64, ptr %24, align 8
  %100 = load i64, ptr %9, align 8
  %101 = icmp slt i64 %99, %100
  br i1 %101, label %102, label %112

102:                                              ; preds = %98
  %103 = load i64, ptr %24, align 8
  %104 = load i64, ptr %23, align 8
  %105 = add nsw i64 %103, %104
  store i64 %105, ptr %26, align 8
  %106 = call noundef nonnull align 8 dereferenceable(8) ptr @_ZSt3minIlERKT_S2_S2_(ptr noundef nonnull align 8 dereferenceable(8) %26, ptr noundef nonnull align 8 dereferenceable(8) %9)
  %107 = load i64, ptr %106, align 8
  store i64 %107, ptr %25, align 8
  call void (ptr, i32, ptr, ...) @__kmpc_fork_call(ptr @3, i32 7, ptr @_ZNK5faiss8IndexNSG6searchElPKflPfPlPKNS_16SearchParametersE.omp_outlined, ptr %28, ptr %25, ptr %24, ptr %13, ptr %11, ptr %12, ptr %10)
  call void @_ZN5faiss17InterruptCallback5checkEv()
  br label %108

108:                                              ; preds = %102
  %109 = load i64, ptr %23, align 8
  %110 = load i64, ptr %24, align 8
  %111 = add nsw i64 %110, %109
  store i64 %111, ptr %24, align 8
  br label %98, !llvm.loop !9

112:                                              ; preds = %98
  %113 = getelementptr inbounds %"struct.faiss::Index", ptr %28, i32 0, i32 7
  %114 = load i32, ptr %113, align 4
  %115 = call noundef zeroext i1 @_ZN5faiss20is_similarity_metricENS_10MetricTypeE(i32 noundef %114)
  br i1 %115, label %116, label %136

116:                                              ; preds = %112
  store i64 0, ptr %27, align 8
  br label %117

117:                                              ; preds = %132, %116
  %118 = load i64, ptr %27, align 8
  %119 = load i64, ptr %11, align 8
  %120 = load i64, ptr %9, align 8
  %121 = mul nsw i64 %119, %120
  %122 = icmp ult i64 %118, %121
  br i1 %122, label %123, label %135

123:                                              ; preds = %117
  %124 = load ptr, ptr %12, align 8
  %125 = load i64, ptr %27, align 8
  %126 = getelementptr inbounds float, ptr %124, i64 %125
  %127 = load float, ptr %126, align 4
  %128 = fneg float %127
  %129 = load ptr, ptr %12, align 8
  %130 = load i64, ptr %27, align 8
  %131 = getelementptr inbounds float, ptr %129, i64 %130
  store float %128, ptr %131, align 4
  br label %132

132:                                              ; preds = %123
  %133 = load i64, ptr %27, align 8
  %134 = add i64 %133, 1
  store i64 %134, ptr %27, align 8
  br label %117, !llvm.loop !10

135:                                              ; preds = %117
  br label %136

136:                                              ; preds = %135, %112
  ret void

137:                                              ; preds = %82, %53
  %138 = load ptr, ptr %17, align 8
  %139 = load i32, ptr %18, align 4
  %140 = insertvalue { ptr, i32 } poison, ptr %138, 0
  %141 = insertvalue { ptr, i32 } %140, i32 %139, 1
  resume { ptr, i32 } %141

142:                                              ; preds = %73, %44
  unreachable
}