; Function Attrs: mustprogress uwtable
define void @_ZNK5faiss8IndexNSG6searchElPKflPfPlPKNS_16SearchParametersE(ptr noundef nonnull align 8 dereferenceable(5132) %0, i64 noundef %1, ptr noundef %2, i64 noundef %3, ptr noundef %4, ptr noundef %5, ptr noundef readnone %6) unnamed_addr #1 align 2 personality ptr @__gxx_personality_v0 {
  %8 = alloca ptr, align 8
  %9 = alloca i64, align 8
  %10 = alloca ptr, align 8
  %11 = alloca ptr, align 8
  %12 = alloca %"class.std::__cxx11::basic_string", align 8
  %13 = alloca %"class.std::__cxx11::basic_string", align 8
  %14 = alloca i64, align 8
  %15 = alloca i64, align 8
  store ptr %2, ptr %8, align 8
  store i64 %3, ptr %9, align 8
  store ptr %4, ptr %10, align 8
  store ptr %5, ptr %11, align 8
  %.not = icmp eq ptr %6, null
  br i1 %.not, label %31, label %16

16:                                               ; preds = %7
  call void @_ZNSt7__cxx1112basic_stringIcSt11char_traitsIcESaIcEEC1Ev(ptr noundef nonnull align 8 dereferenceable(32) %12) #8
  %17 = call i32 (ptr, i64, ptr, ...) @snprintf(ptr noundef null, i64 noundef 0, ptr noundef nonnull @.str.3, ptr noundef nonnull @.str.4) #8
  %18 = add nsw i32 %17, 1
  %19 = sext i32 %18 to i64
  invoke void @_ZNSt7__cxx1112basic_stringIcSt11char_traitsIcESaIcEE6resizeEm(ptr noundef nonnull align 8 dereferenceable(32) %12, i64 noundef %19)
          to label %20 unwind label %27

20:                                               ; preds = %16
  %21 = invoke noundef nonnull align 1 dereferenceable(1) ptr @_ZNSt7__cxx1112basic_stringIcSt11char_traitsIcESaIcEEixEm(ptr noundef nonnull align 8 dereferenceable(32) %12, i64 noundef 0)
          to label %22 unwind label %27

22:                                               ; preds = %20
  %23 = call noundef i64 @_ZNKSt7__cxx1112basic_stringIcSt11char_traitsIcESaIcEE4sizeEv(ptr noundef nonnull align 8 dereferenceable(32) %12) #8
  %24 = call i32 (ptr, i64, ptr, ...) @snprintf(ptr noundef nonnull %21, i64 noundef %23, ptr noundef nonnull @.str.3, ptr noundef nonnull @.str.4) #8
  %25 = call ptr @__cxa_allocate_exception(i64 40) #8
  invoke void @_ZN5faiss14FaissExceptionC1ERKNSt7__cxx1112basic_stringIcSt11char_traitsIcESaIcEEEPKcSA_i(ptr noundef nonnull align 8 dereferenceable(40) %25, ptr noundef nonnull align 8 dereferenceable(32) %12, ptr noundef nonnull @__PRETTY_FUNCTION__._ZNK5faiss8IndexNSG6searchElPKflPfPlPKNS_16SearchParametersE, ptr noundef nonnull @.str.2, i32 noundef 67)
          to label %26 unwind label %29

26:                                               ; preds = %22
  invoke void @__cxa_throw(ptr nonnull %25, ptr nonnull @_ZTIN5faiss14FaissExceptionE, ptr nonnull @_ZN5faiss14FaissExceptionD2Ev) #20
          to label %76 unwind label %27

27:                                               ; preds = %26, %20, %16
  %28 = landingpad { ptr, i32 }
          cleanup
  br label %75

29:                                               ; preds = %22
  %30 = landingpad { ptr, i32 }
          cleanup
  call void @__cxa_free_exception(ptr %25) #8
  br label %75

31:                                               ; preds = %7
  %32 = getelementptr inbounds i8, ptr %0, i64 5096
  %33 = load ptr, ptr %32, align 8
  %.not17 = icmp eq ptr %33, null
  br i1 %.not17, label %34, label %49

34:                                               ; preds = %31
  call void @_ZNSt7__cxx1112basic_stringIcSt11char_traitsIcESaIcEEC1Ev(ptr noundef nonnull align 8 dereferenceable(32) %13) #8
  %35 = call i32 (ptr, i64, ptr, ...) @snprintf(ptr noundef null, i64 noundef 0, ptr noundef nonnull @.str, ptr noundef nonnull @.str.1) #8
  %36 = add nsw i32 %35, 1
  %37 = sext i32 %36 to i64
  invoke void @_ZNSt7__cxx1112basic_stringIcSt11char_traitsIcESaIcEE6resizeEm(ptr noundef nonnull align 8 dereferenceable(32) %13, i64 noundef %37)
          to label %38 unwind label %45

38:                                               ; preds = %34
  %39 = invoke noundef nonnull align 1 dereferenceable(1) ptr @_ZNSt7__cxx1112basic_stringIcSt11char_traitsIcESaIcEEixEm(ptr noundef nonnull align 8 dereferenceable(32) %13, i64 noundef 0)
          to label %40 unwind label %45

40:                                               ; preds = %38
  %41 = call noundef i64 @_ZNKSt7__cxx1112basic_stringIcSt11char_traitsIcESaIcEE4sizeEv(ptr noundef nonnull align 8 dereferenceable(32) %13) #8
  %42 = call i32 (ptr, i64, ptr, ...) @snprintf(ptr noundef nonnull %39, i64 noundef %41, ptr noundef nonnull @.str, ptr noundef nonnull @.str.1) #8
  %43 = call ptr @__cxa_allocate_exception(i64 40) #8
  invoke void @_ZN5faiss14FaissExceptionC1ERKNSt7__cxx1112basic_stringIcSt11char_traitsIcESaIcEEEPKcSA_i(ptr noundef nonnull align 8 dereferenceable(40) %43, ptr noundef nonnull align 8 dereferenceable(32) %13, ptr noundef nonnull @__PRETTY_FUNCTION__._ZNK5faiss8IndexNSG6searchElPKflPfPlPKNS_16SearchParametersE, ptr noundef nonnull @.str.2, i32 noundef 70)
          to label %44 unwind label %47

44:                                               ; preds = %40
  invoke void @__cxa_throw(ptr nonnull %43, ptr nonnull @_ZTIN5faiss14FaissExceptionE, ptr nonnull @_ZN5faiss14FaissExceptionD2Ev) #20
          to label %76 unwind label %45

45:                                               ; preds = %44, %38, %34
  %46 = landingpad { ptr, i32 }
          cleanup
  br label %75

47:                                               ; preds = %40
  %48 = landingpad { ptr, i32 }
          cleanup
  call void @__cxa_free_exception(ptr %43) #8
  br label %75

49:                                               ; preds = %31
  %50 = getelementptr inbounds i8, ptr %0, i64 56
  %51 = trunc i64 %3 to i32
  %52 = load i32, ptr %50, align 8
  %.sroa.speculated25 = tail call i32 @llvm.smax.i32(i32 %52, i32 %51)
  %53 = getelementptr inbounds i8, ptr %0, i64 8
  %54 = load i32, ptr %53, align 8
  %55 = mul nsw i32 %54, %.sroa.speculated25
  %56 = sext i32 %55 to i64
  %57 = tail call noundef i64 @_ZN5faiss17InterruptCallback15get_period_hintEm(i64 noundef %56)
  store i64 0, ptr %14, align 8
  %58 = icmp sgt i64 %1, 0
  br i1 %58, label %.lr.ph, label %._crit_edge

.lr.ph:                                           ; preds = %49, %.lr.ph
  %storemerge32 = phi i64 [ %61, %.lr.ph ], [ 0, %49 ]
  %59 = add nsw i64 %storemerge32, %57
  %.sroa.speculated = call i64 @llvm.smin.i64(i64 %59, i64 %1)
  store i64 %.sroa.speculated, ptr %15, align 8
  call void (ptr, i32, ptr, ...) @__kmpc_fork_call(ptr nonnull @3, i32 7, ptr nonnull @_ZNK5faiss8IndexNSG6searchElPKflPfPlPKNS_16SearchParametersE.omp_outlined, ptr nonnull %0, ptr nonnull %15, ptr nonnull %14, ptr nonnull %11, ptr nonnull %9, ptr nonnull %10, ptr nonnull %8)
  call void @_ZN5faiss17InterruptCallback5checkEv()
  %60 = load i64, ptr %14, align 8
  %61 = add nsw i64 %60, %57
  store i64 %61, ptr %14, align 8
  %62 = icmp slt i64 %61, %1
  br i1 %62, label %.lr.ph, label %._crit_edge, !llvm.loop !10

._crit_edge:                                      ; preds = %.lr.ph, %49
  %63 = getelementptr inbounds i8, ptr %0, i64 28
  %64 = load i32, ptr %63, align 4
  switch i32 %64, label %.loopexit [
    i32 23, label %.preheader
    i32 0, label %.preheader
  ]

.preheader:                                       ; preds = %._crit_edge, %._crit_edge
  %65 = load i64, ptr %9, align 8
  %66 = mul nsw i64 %65, %1
  %.not35 = icmp eq i64 %66, 0
  br i1 %.not35, label %.loopexit, label %.lr.ph34

.lr.ph34:                                         ; preds = %.preheader, %.lr.ph34
  %.033 = phi i64 [ %71, %.lr.ph34 ], [ 0, %.preheader ]
  %67 = load ptr, ptr %10, align 8
  %68 = getelementptr inbounds float, ptr %67, i64 %.033
  %69 = load float, ptr %68, align 4
  %70 = fneg float %69
  store float %70, ptr %68, align 4
  %71 = add nuw i64 %.033, 1
  %72 = load i64, ptr %9, align 8
  %73 = mul nsw i64 %72, %1
  %74 = icmp ult i64 %71, %73
  br i1 %74, label %.lr.ph34, label %.loopexit, !llvm.loop !11

.loopexit:                                        ; preds = %.lr.ph34, %.preheader, %._crit_edge
  ret void

75:                                               ; preds = %45, %47, %27, %29
  %.sink = phi ptr [ %12, %29 ], [ %12, %27 ], [ %13, %47 ], [ %13, %45 ]
  %.pn19.pn = phi { ptr, i32 } [ %30, %29 ], [ %28, %27 ], [ %48, %47 ], [ %46, %45 ]
  call void @_ZNSt7__cxx1112basic_stringIcSt11char_traitsIcESaIcEED1Ev(ptr noundef nonnull align 8 dereferenceable(32) %.sink) #8
  resume { ptr, i32 } %.pn19.pn

76:                                               ; preds = %44, %26
  unreachable
}